target datalayout = "e-m:e-p270:32:32-p271:32:32-p272:64:64-i64:64-i128:128-f80:128-n8:16:32:64-S128"
target triple = "x86_64-pc-linux-gnu"

%"class.icu_77::Normalizer" = type <{ %"class.icu_77::UObject", ptr, ptr, i32, i32, ptr, i32, i32, %"class.icu_77::UnicodeString", i32, [4 x i8] }>
%"class.icu_77::UObject" = type { ptr }
%"class.icu_77::UnicodeString" = type { %"class.icu_77::Replaceable", %"union.icu_77::UnicodeString::StackBufferOrFields" }
%"class.icu_77::Replaceable" = type { %"class.icu_77::UObject" }
%"union.icu_77::UnicodeString::StackBufferOrFields" = type { %struct.anon.0, [32 x i8] }
%struct.anon.0 = type { i16, i32, i32, ptr }

; Function Attrs: inlinehint mustprogress nounwind uwtable
define linkonce_odr void @_ZN6icu_7713UnicodeString13setZeroLengthEv(ptr noundef nonnull align 8 dereferenceable(64) %0) #3 comdat align 2 {
  %2 = alloca ptr, align 8
  store ptr %0, ptr %2, align 8, !tbaa !8
  %3 = load ptr, ptr %2, align 8
  %4 = getelementptr inbounds nuw %"class.icu_77::UnicodeString", ptr %3, i32 0, i32 1
  %5 = getelementptr inbounds nuw %struct.anon.0, ptr %4, i32 0, i32 0
  %6 = load i16, ptr %5, align 8, !tbaa !32
  %7 = sext i16 %6 to i32
  %8 = and i32 %7, 31
  %9 = trunc i32 %8 to i16
  store i16 %9, ptr %5, align 8, !tbaa !32
  ret void
}

; Function Attrs: inlinehint mustprogress nounwind uwtable
define linkonce_odr void @_ZN6icu_7713UnicodeString10setToEmptyEv(ptr noundef nonnull align 8 dereferenceable(64) %0) #3 comdat align 2 {
  %2 = alloca ptr, align 8
  store ptr %0, ptr %2, align 8, !tbaa !8
  %3 = load ptr, ptr %2, align 8
  %4 = getelementptr inbounds nuw %"class.icu_77::UnicodeString", ptr %3, i32 0, i32 1
  %5 = getelementptr inbounds nuw %struct.anon.0, ptr %4, i32 0, i32 0
  store i16 2, ptr %5, align 8, !tbaa !32
  ret void
}

; Function Attrs: inlinehint mustprogress nounwind uwtable
define linkonce_odr noundef signext i8 @_ZNK6icu_7713UnicodeString7isBogusEv(ptr noundef nonnull align 8 dereferenceable(64) %0) #3 comdat align 2 {
  %2 = alloca ptr, align 8
  store ptr %0, ptr %2, align 8, !tbaa !8
  %3 = load ptr, ptr %2, align 8
  %4 = getelementptr inbounds nuw %"class.icu_77::UnicodeString", ptr %3, i32 0, i32 1
  %5 = getelementptr inbounds nuw %struct.anon.0, ptr %4, i32 0, i32 0
  %6 = load i16, ptr %5, align 8, !tbaa !32
  %7 = sext i16 %6 to i32
  %8 = and i32 %7, 1
  %9 = trunc i32 %8 to i8
  ret i8 %9
}

; Function Attrs: inlinehint mustprogress uwtable
define linkonce_odr noundef nonnull align 8 dereferenceable(64) ptr @_ZN6icu_7713UnicodeString6removeEv(ptr noundef nonnull align 8 dereferenceable(64) %0) #6 comdat align 2 {
  %2 = alloca ptr, align 8
  store ptr %0, ptr %2, align 8, !tbaa !8
  %3 = load ptr, ptr %2, align 8
  %4 = call noundef signext i8 @_ZNK6icu_7713UnicodeString7isBogusEv(ptr noundef nonnull align 8 dereferenceable(64) %3)
  %5 = icmp ne i8 %4, 0
  br i1 %5, label %6, label %7

6:                                                ; preds = %1
  call void @_ZN6icu_7713UnicodeString10setToEmptyEv(ptr noundef nonnull align 8 dereferenceable(64) %3)
  br label %8

7:                                                ; preds = %1
  call void @_ZN6icu_7713UnicodeString13setZeroLengthEv(ptr noundef nonnull align 8 dereferenceable(64) %3)
  br label %8

8:                                                ; preds = %7, %6
  ret ptr %3
}

; Function Attrs: mustprogress uwtable
define void @_ZN6icu_7710Normalizer11clearBufferEv(ptr noundef nonnull align 8 dereferenceable(116) %0) #1 align 2 {
  %2 = alloca ptr, align 8
  store ptr %0, ptr %2, align 8, !tbaa !3
  %3 = load ptr, ptr %2, align 8
  %4 = getelementptr inbounds nuw %"class.icu_77::Normalizer", ptr %3, i32 0, i32 8
  %5 = call noundef nonnull align 8 dereferenceable(64) ptr @_ZN6icu_7713UnicodeString6removeEv(ptr noundef nonnull align 8 dereferenceable(64) %4)
  %6 = getelementptr inbounds nuw %"class.icu_77::Normalizer", ptr %3, i32 0, i32 9
  store i32 0, ptr %6, align 8, !tbaa !29
  ret void
}

; Function Attrs: inlinehint mustprogress uwtable
define linkonce_odr noundef i32 @_ZN6icu_7717CharacterIterator10setToStartEv(ptr noundef nonnull align 8 dereferenceable(24) %0) #6 comdat align 2 {
  %2 = alloca ptr, align 8
  store ptr %0, ptr %2, align 8, !tbaa !44
  %3 = load ptr, ptr %2, align 8
  %4 = load ptr, ptr %3, align 8, !tbaa !12
  %5 = getelementptr inbounds ptr, ptr %4, i64 24
  %6 = load ptr, ptr %5, align 8
  %7 = call noundef i32 %6(ptr noundef nonnull align 8 dereferenceable(24) %3, i32 noundef 0, i32 noundef 0)
  ret i32 %7
}

; Function Attrs: mustprogress uwtable
define void @_ZN6icu_7710Normalizer5resetEv(ptr noundef nonnull align 8 dereferenceable(116) %0) #1 align 2 {
  %2 = alloca ptr, align 8
  store ptr %0, ptr %2, align 8, !tbaa !3
  %3 = load ptr, ptr %2, align 8
  %4 = getelementptr inbounds nuw %"class.icu_77::Normalizer", ptr %3, i32 0, i32 5
  %5 = load ptr, ptr %4, align 8, !tbaa !26
  %6 = call noundef i32 @_ZN6icu_7717CharacterIterator10setToStartEv(ptr noundef nonnull align 8 dereferenceable(24) %5)
  %7 = getelementptr inbounds nuw %"class.icu_77::Normalizer", ptr %3, i32 0, i32 7
  store i32 %6, ptr %7, align 4, !tbaa !28
  %8 = getelementptr inbounds nuw %"class.icu_77::Normalizer", ptr %3, i32 0, i32 6
  store i32 %6, ptr %8, align 8, !tbaa !27
  call void @_ZN6icu_7710Normalizer11clearBufferEv(ptr noundef nonnull align 8 dereferenceable(116) %3)
  ret void
}

; Function Attrs: inlinehint mustprogress nounwind uwtable
define internal noundef signext i8 @_ZL9U_FAILURE10UErrorCode(i32 noundef %0) #3 {
  %2 = alloca i32, align 4
  store i32 %0, ptr %2, align 4, !tbaa !33
  %3 = load i32, ptr %2, align 4, !tbaa !33
  %4 = icmp sgt i32 %3, 0
  %5 = zext i1 %4 to i8
  ret i8 %5
}

; Function Attrs: mustprogress uwtable
define void @_ZN6icu_7710Normalizer7setTextERKNS_17CharacterIteratorER10UErrorCode(ptr noundef nonnull align 8 dereferenceable(116) %0, ptr noundef nonnull align 8 dereferenceable(24) %1, ptr noundef nonnull align 4 dereferenceable(4) %2) #1 align 2 {
  %4 = alloca ptr, align 8
  %5 = alloca ptr, align 8
  %6 = alloca ptr, align 8
  %7 = alloca ptr, align 8
  %8 = alloca i32, align 4
  store ptr %0, ptr %4, align 8, !tbaa !3
  store ptr %1, ptr %5, align 8, !tbaa !44
  store ptr %2, ptr %6, align 8, !tbaa !49
  %9 = load ptr, ptr %4, align 8
  %10 = load ptr, ptr %6, align 8, !tbaa !49
  %11 = load i32, ptr %10, align 4, !tbaa !33
  %12 = call noundef signext i8 @_ZL9U_FAILURE10UErrorCode(i32 noundef %11)
  %13 = icmp ne i8 %12, 0
  br i1 %13, label %14, label %15

14:                                               ; preds = %3
  br label %38

15:                                               ; preds = %3
  call void @llvm.lifetime.start.p0(i64 8, ptr %7) #9
  %16 = load ptr, ptr %5, align 8, !tbaa !44
  %17 = load ptr, ptr %16, align 8, !tbaa !12
  %18 = getelementptr inbounds ptr, ptr %17, i64 8
  %19 = load ptr, ptr %18, align 8
  %20 = call noundef ptr %19(ptr noundef nonnull align 8 dereferenceable(24) %16)
  store ptr %20, ptr %7, align 8, !tbaa !44
  %21 = load ptr, ptr %7, align 8, !tbaa !44
  %22 = icmp eq ptr %21, null
  br i1 %22, label %23, label %25

23:                                               ; preds = %15
  %24 = load ptr, ptr %6, align 8, !tbaa !49
  store i32 7, ptr %24, align 4, !tbaa !33
  store i32 1, ptr %8, align 4
  br label %36

25:                                               ; preds = %15
  %26 = getelementptr inbounds nuw %"class.icu_77::Normalizer", ptr %9, i32 0, i32 5
  %27 = load ptr, ptr %26, align 8, !tbaa !26
  %28 = icmp eq ptr %27, null
  br i1 %28, label %33, label %29

29:                                               ; preds = %25
  %30 = load ptr, ptr %27, align 8, !tbaa !12
  %31 = getelementptr inbounds ptr, ptr %30, i64 1
  %32 = load ptr, ptr %31, align 8
  call void %32(ptr noundef nonnull align 8 dereferenceable(24) %27) #9
  br label %33

33:                                               ; preds = %29, %25
  %34 = load ptr, ptr %7, align 8, !tbaa !44
  %35 = getelementptr inbounds nuw %"class.icu_77::Normalizer", ptr %9, i32 0, i32 5
  store ptr %34, ptr %35, align 8, !tbaa !26
  call void @_ZN6icu_7710Normalizer5resetEv(ptr noundef nonnull align 8 dereferenceable(116) %9)
  store i32 0, ptr %8, align 4
  br label %36

36:                                               ; preds = %33, %23
  call void @llvm.lifetime.end.p0(i64 8, ptr %7) #9
  %37 = load i32, ptr %8, align 4
  switch i32 %37, label %39 [
    i32 0, label %38
    i32 1, label %38
  ]

38:                                               ; preds = %14, %36, %36
  ret void

39:                                               ; preds = %36
  unreachable
}