; Function Attrs: mustprogress uwtable
define void @_ZN6icu_7710Normalizer7setTextERKNS_17CharacterIteratorER10UErrorCode(ptr noundef nonnull align 8 captures(none) dereferenceable(116) %0, ptr noundef nonnull align 8 dereferenceable(24) %1, ptr noundef nonnull align 4 captures(none) dereferenceable(4) %2) local_unnamed_addr #1 align 2 {
  %4 = load i32, ptr %2, align 4, !tbaa !24
  %5 = icmp slt i32 %4, 1
  br i1 %5, label %6, label %33

6:                                                ; preds = %3
  %7 = load ptr, ptr %1, align 8, !tbaa !3
  %8 = getelementptr inbounds nuw i8, ptr %7, i64 64
  %9 = load ptr, ptr %8, align 8
  %10 = tail call noundef ptr %9(ptr noundef nonnull align 8 dereferenceable(24) %1)
  %11 = icmp eq ptr %10, null
  br i1 %11, label %12, label %13

12:                                               ; preds = %6
  store i32 7, ptr %2, align 4, !tbaa !24
  br label %33

13:                                               ; preds = %6
  %14 = getelementptr inbounds nuw i8, ptr %0, i64 32
  %15 = load ptr, ptr %14, align 8, !tbaa !19
  %16 = icmp eq ptr %15, null
  br i1 %16, label %21, label %17

17:                                               ; preds = %13
  %18 = load ptr, ptr %15, align 8, !tbaa !3
  %19 = getelementptr inbounds nuw i8, ptr %18, i64 8
  %20 = load ptr, ptr %19, align 8
  tail call void %20(ptr noundef nonnull align 8 dereferenceable(24) %15) #10
  br label %21

21:                                               ; preds = %17, %13
  store ptr %10, ptr %14, align 8, !tbaa !19
  %22 = load ptr, ptr %10, align 8, !tbaa !3
  %23 = getelementptr inbounds nuw i8, ptr %22, i64 192
  %24 = load ptr, ptr %23, align 8
  %25 = tail call noundef i32 %24(ptr noundef nonnull align 8 dereferenceable(24) %10, i32 noundef 0, i32 noundef 0)
  %26 = getelementptr inbounds nuw i8, ptr %0, i64 44
  store i32 %25, ptr %26, align 4, !tbaa !21
  %27 = getelementptr inbounds nuw i8, ptr %0, i64 40
  store i32 %25, ptr %27, align 8, !tbaa !20
  %28 = getelementptr inbounds nuw i8, ptr %0, i64 56
  %29 = load i16, ptr %28, align 8, !tbaa !22
  %30 = and i16 %29, 1
  %.not.i.i.i = icmp eq i16 %30, 0
  %31 = and i16 %29, 30
  %storemerge.i.i.i = select i1 %.not.i.i.i, i16 %31, i16 2
  store i16 %storemerge.i.i.i, ptr %28, align 8, !tbaa !22
  %32 = getelementptr inbounds nuw i8, ptr %0, i64 112
  store i32 0, ptr %32, align 8, !tbaa !23
  br label %33

33:                                               ; preds = %12, %21, %3
  ret void
}